; Function Attrs: nounwind uwtable
define range(i32 0, -1) i32 @llhttp__on_version(ptr noundef %0, ptr noundef %1, ptr noundef %2) local_unnamed_addr #0 {
  %4 = getelementptr inbounds nuw i8, ptr %0, i64 88
  %5 = load ptr, ptr %4, align 8, !tbaa !12
  %6 = icmp eq ptr %5, null
  br i1 %6, label %19, label %7

7:                                                ; preds = %3
  %8 = getelementptr inbounds nuw i8, ptr %5, i64 32
  %9 = load ptr, ptr %8, align 8, !tbaa !33
  %10 = icmp eq ptr %9, null
  br i1 %10, label %19, label %11

11:                                               ; preds = %7
  %12 = ptrtoint ptr %2 to i64
  %13 = ptrtoint ptr %1 to i64
  %14 = sub i64 %12, %13
  %15 = tail call i32 %9(ptr noundef nonnull %0, ptr noundef %1, i64 noundef %14) #10
  %16 = icmp eq i32 %15, -1
  br i1 %16, label %17, label %19

17:                                               ; preds = %11
  %18 = getelementptr inbounds nuw i8, ptr %0, i64 32
  store ptr @.str.187, ptr %18, align 8, !tbaa !24
  br label %19

19:                                               ; preds = %11, %17, %3, %7
  %.0 = phi i32 [ 0, %7 ], [ 0, %3 ], [ 24, %17 ], [ %15, %11 ]
  ret i32 %.0
}